target datalayout = "e-m:e-p270:32:32-p271:32:32-p272:64:64-i64:64-i128:128-f80:128-n8:16:32:64-S128"
target triple = "x86_64-pc-linux-gnu"

%struct.IspellDict = type { i32, i32, ptr, ptr, ptr, ptr, ptr, i32, i32, i8, ptr, i8, i32, ptr, i32, i32, ptr, ptr, i32, i32, ptr, i64 }
%struct.CompoundAffixFlag = type { %union.anon.1, i32, i32 }
%union.anon.1 = type { ptr }

@.str.2 = private unnamed_addr constant [8 x i8] c"spell.c\00", align 1
@.str.15 = private unnamed_addr constant [13 x i8] c"syntax error\00", align 1
@__func__.addCompoundAffixFlagValue = private unnamed_addr constant [26 x i8] c"addCompoundAffixFlagValue\00", align 1

; Function Attrs: nounwind uwtable
define internal void @addCompoundAffixFlagValue(ptr noundef %0, ptr noundef %1, i32 noundef %2) #0 {
  %4 = alloca ptr, align 8
  %5 = alloca ptr, align 8
  %6 = alloca i32, align 4
  %7 = alloca ptr, align 8
  %8 = alloca [8192 x i8], align 16
  %9 = alloca ptr, align 8
  %10 = alloca i32, align 4
  store ptr %0, ptr %4, align 8
  store ptr %1, ptr %5, align 8
  store i32 %2, ptr %6, align 4
  call void @llvm.lifetime.start.p0(i64 8, ptr %7) #11
  call void @llvm.lifetime.start.p0(i64 8192, ptr %8) #11
  call void @llvm.lifetime.start.p0(i64 8, ptr %9) #11
  call void @llvm.lifetime.start.p0(i64 4, ptr %10) #11
  br label %11

11:                                               ; preds = %30, %3
  %12 = load ptr, ptr %5, align 8
  %13 = load i8, ptr %12, align 1
  %14 = sext i8 %13 to i32
  %15 = icmp ne i32 %14, 0
  br i1 %15, label %16, label %28

16:                                               ; preds = %11
  %17 = call ptr @__ctype_b_loc() #13
  %18 = load ptr, ptr %17, align 8
  %19 = load ptr, ptr %5, align 8
  %20 = load i8, ptr %19, align 1
  %21 = zext i8 %20 to i32
  %22 = sext i32 %21 to i64
  %23 = getelementptr inbounds i16, ptr %18, i64 %22
  %24 = load i16, ptr %23, align 2
  %25 = zext i16 %24 to i32
  %26 = and i32 %25, 8192
  %27 = icmp ne i32 %26, 0
  br label %28

28:                                               ; preds = %16, %11
  %29 = phi i1 [ false, %11 ], [ %27, %16 ]
  br i1 %29, label %30, label %36

30:                                               ; preds = %28
  %31 = load ptr, ptr %5, align 8
  %32 = call i32 @pg_mblen(ptr noundef %31)
  %33 = load ptr, ptr %5, align 8
  %34 = sext i32 %32 to i64
  %35 = getelementptr inbounds i8, ptr %33, i64 %34
  store ptr %35, ptr %5, align 8
  br label %11, !llvm.loop !16

36:                                               ; preds = %28
  %37 = load ptr, ptr %5, align 8
  %38 = load i8, ptr %37, align 1
  %39 = icmp ne i8 %38, 0
  br i1 %39, label %52, label %40

40:                                               ; preds = %36
  br label %41

41:                                               ; preds = %40
  br i1 true, label %42, label %44

42:                                               ; preds = %41
  %43 = call zeroext i1 @errstart_cold(i32 noundef 21, ptr noundef null) #12
  br i1 %43, label %46, label %49

44:                                               ; preds = %41
  %45 = call zeroext i1 @errstart(i32 noundef 21, ptr noundef null)
  br i1 %45, label %46, label %49

46:                                               ; preds = %44, %42
  %47 = call i32 @errcode(i32 noundef 22)
  %48 = call i32 (ptr, ...) @errmsg(ptr noundef @.str.15)
  call void @errfinish(ptr noundef @.str.2, i32 noundef 1080, ptr noundef @__func__.addCompoundAffixFlagValue)
  br label %49

49:                                               ; preds = %46, %44, %42
  unreachable

50:                                               ; No predecessors!
  br label %51

51:                                               ; preds = %50
  br label %52

52:                                               ; preds = %51, %36
  %53 = getelementptr inbounds [8192 x i8], ptr %8, i64 0, i64 0
  store ptr %53, ptr %9, align 8
  br label %54

54:                                               ; preds = %78, %52
  %55 = load ptr, ptr %5, align 8
  %56 = load i8, ptr %55, align 1
  %57 = sext i8 %56 to i32
  %58 = icmp ne i32 %57, 0
  br i1 %58, label %59, label %76

59:                                               ; preds = %54
  %60 = call ptr @__ctype_b_loc() #13
  %61 = load ptr, ptr %60, align 8
  %62 = load ptr, ptr %5, align 8
  %63 = load i8, ptr %62, align 1
  %64 = zext i8 %63 to i32
  %65 = sext i32 %64 to i64
  %66 = getelementptr inbounds i16, ptr %61, i64 %65
  %67 = load i16, ptr %66, align 2
  %68 = zext i16 %67 to i32
  %69 = and i32 %68, 8192
  %70 = icmp ne i32 %69, 0
  br i1 %70, label %76, label %71

71:                                               ; preds = %59
  %72 = load ptr, ptr %5, align 8
  %73 = load i8, ptr %72, align 1
  %74 = sext i8 %73 to i32
  %75 = icmp ne i32 %74, 10
  br label %76

76:                                               ; preds = %71, %59, %54
  %77 = phi i1 [ false, %59 ], [ false, %54 ], [ %75, %71 ]
  br i1 %77, label %78, label %94

78:                                               ; preds = %76
  %79 = load ptr, ptr %5, align 8
  %80 = call i32 @pg_mblen(ptr noundef %79)
  store i32 %80, ptr %10, align 4
  %81 = load ptr, ptr %9, align 8
  %82 = load ptr, ptr %5, align 8
  %83 = load ptr, ptr %5, align 8
  %84 = call i32 @pg_mblen(ptr noundef %83)
  %85 = sext i32 %84 to i64
  call void @llvm.memcpy.p0.p0.i64(ptr align 1 %81, ptr align 1 %82, i64 %85, i1 false)
  %86 = load i32, ptr %10, align 4
  %87 = load ptr, ptr %9, align 8
  %88 = sext i32 %86 to i64
  %89 = getelementptr inbounds i8, ptr %87, i64 %88
  store ptr %89, ptr %9, align 8
  %90 = load i32, ptr %10, align 4
  %91 = load ptr, ptr %5, align 8
  %92 = sext i32 %90 to i64
  %93 = getelementptr inbounds i8, ptr %91, i64 %92
  store ptr %93, ptr %5, align 8
  br label %54, !llvm.loop !17

94:                                               ; preds = %76
  %95 = load ptr, ptr %9, align 8
  store i8 0, ptr %95, align 1
  %96 = load ptr, ptr %4, align 8
  %97 = getelementptr inbounds nuw %struct.IspellDict, ptr %96, i32 0, i32 14
  %98 = load i32, ptr %97, align 8
  %99 = load ptr, ptr %4, align 8
  %100 = getelementptr inbounds nuw %struct.IspellDict, ptr %99, i32 0, i32 15
  %101 = load i32, ptr %100, align 4
  %102 = icmp sge i32 %98, %101
  br i1 %102, label %103, label %139

103:                                              ; preds = %94
  %104 = load ptr, ptr %4, align 8
  %105 = getelementptr inbounds nuw %struct.IspellDict, ptr %104, i32 0, i32 15
  %106 = load i32, ptr %105, align 4
  %107 = icmp ne i32 %106, 0
  br i1 %107, label %108, label %124

108:                                              ; preds = %103
  %109 = load ptr, ptr %4, align 8
  %110 = getelementptr inbounds nuw %struct.IspellDict, ptr %109, i32 0, i32 15
  %111 = load i32, ptr %110, align 4
  %112 = mul i32 %111, 2
  store i32 %112, ptr %110, align 4
  %113 = load ptr, ptr %4, align 8
  %114 = getelementptr inbounds nuw %struct.IspellDict, ptr %113, i32 0, i32 13
  %115 = load ptr, ptr %114, align 8
  %116 = load ptr, ptr %4, align 8
  %117 = getelementptr inbounds nuw %struct.IspellDict, ptr %116, i32 0, i32 15
  %118 = load i32, ptr %117, align 4
  %119 = sext i32 %118 to i64
  %120 = mul i64 %119, 16
  %121 = call ptr @repalloc(ptr noundef %115, i64 noundef %120)
  %122 = load ptr, ptr %4, align 8
  %123 = getelementptr inbounds nuw %struct.IspellDict, ptr %122, i32 0, i32 13
  store ptr %121, ptr %123, align 8
  br label %138

124:                                              ; preds = %103
  %125 = load ptr, ptr %4, align 8
  %126 = getelementptr inbounds nuw %struct.IspellDict, ptr %125, i32 0, i32 15
  store i32 10, ptr %126, align 4
  %127 = load ptr, ptr %4, align 8
  %128 = getelementptr inbounds nuw %struct.IspellDict, ptr %127, i32 0, i32 16
  %129 = load ptr, ptr %128, align 8
  %130 = load ptr, ptr %4, align 8
  %131 = getelementptr inbounds nuw %struct.IspellDict, ptr %130, i32 0, i32 15
  %132 = load i32, ptr %131, align 4
  %133 = sext i32 %132 to i64
  %134 = mul i64 %133, 16
  %135 = call ptr @MemoryContextAlloc(ptr noundef %129, i64 noundef %134)
  %136 = load ptr, ptr %4, align 8
  %137 = getelementptr inbounds nuw %struct.IspellDict, ptr %136, i32 0, i32 13
  store ptr %135, ptr %137, align 8
  br label %138

138:                                              ; preds = %124, %108
  br label %139

139:                                              ; preds = %138, %94
  %140 = load ptr, ptr %4, align 8
  %141 = getelementptr inbounds nuw %struct.IspellDict, ptr %140, i32 0, i32 13
  %142 = load ptr, ptr %141, align 8
  %143 = load ptr, ptr %4, align 8
  %144 = getelementptr inbounds nuw %struct.IspellDict, ptr %143, i32 0, i32 14
  %145 = load i32, ptr %144, align 8
  %146 = sext i32 %145 to i64
  %147 = getelementptr inbounds %struct.CompoundAffixFlag, ptr %142, i64 %146
  store ptr %147, ptr %7, align 8
  %148 = load ptr, ptr %4, align 8
  %149 = load ptr, ptr %7, align 8
  %150 = getelementptr inbounds [8192 x i8], ptr %8, i64 0, i64 0
  %151 = load i32, ptr %6, align 4
  call void @setCompoundAffixFlagValue(ptr noundef %148, ptr noundef %149, ptr noundef %150, i32 noundef %151)
  %152 = load ptr, ptr %4, align 8
  %153 = getelementptr inbounds nuw %struct.IspellDict, ptr %152, i32 0, i32 11
  store i8 1, ptr %153, align 8
  %154 = load ptr, ptr %4, align 8
  %155 = getelementptr inbounds nuw %struct.IspellDict, ptr %154, i32 0, i32 14
  %156 = load i32, ptr %155, align 8
  %157 = add i32 %156, 1
  store i32 %157, ptr %155, align 8
  call void @llvm.lifetime.end.p0(i64 4, ptr %10) #11
  call void @llvm.lifetime.end.p0(i64 8, ptr %9) #11
  call void @llvm.lifetime.end.p0(i64 8192, ptr %8) #11
  call void @llvm.lifetime.end.p0(i64 8, ptr %7) #11
  ret void
}