; Function Attrs: nounwind uwtable
define internal fastcc void @addCompoundAffixFlagValue(ptr noundef captures(none) %0, ptr noundef nonnull %1, i32 noundef range(i32 1, 33) %2) unnamed_addr #0 {
  %4 = alloca [8192 x i8], align 16
  call void @llvm.lifetime.start.p0(i64 8192, ptr nonnull %4) #14
  %5 = load i8, ptr %1, align 1
  %.not47 = icmp eq i8 %5, 0
  br i1 %.not47, label %._crit_edge, label %.lr.ph

.lr.ph:                                           ; preds = %3
  %6 = tail call ptr @__ctype_b_loc() #16
  br label %7

7:                                                ; preds = %.lr.ph, %14
  %8 = phi i8 [ %5, %.lr.ph ], [ %18, %14 ]
  %.048 = phi ptr [ %1, %.lr.ph ], [ %17, %14 ]
  %9 = load ptr, ptr %6, align 8
  %10 = zext i8 %8 to i64
  %11 = getelementptr inbounds nuw i16, ptr %9, i64 %10
  %12 = load i16, ptr %11, align 2
  %13 = and i16 %12, 8192
  %.not39 = icmp eq i16 %13, 0
  br i1 %.not39, label %.lr.ph52, label %14

14:                                               ; preds = %7
  %15 = tail call i32 @pg_mblen(ptr noundef nonnull %.048) #14
  %16 = sext i32 %15 to i64
  %17 = getelementptr inbounds i8, ptr %.048, i64 %16
  %18 = load i8, ptr %17, align 1
  %.not = icmp eq i8 %18, 0
  br i1 %.not, label %._crit_edge, label %7, !llvm.loop !21

._crit_edge:                                      ; preds = %14, %3
  %19 = tail call zeroext i1 @errstart_cold(i32 noundef 21, ptr noundef null) #15
  tail call void @llvm.assume(i1 %19)
  %20 = tail call i32 @errcode(i32 noundef 22) #14
  %21 = tail call i32 (ptr, ...) @errmsg(ptr noundef nonnull @.str.15) #14
  tail call void @errfinish(ptr noundef nonnull @.str.2, i32 noundef 1080, ptr noundef nonnull @__func__.addCompoundAffixFlagValue) #14
  unreachable

.lr.ph52:                                         ; preds = %7, %.critedge
  %22 = phi i8 [ %34, %.critedge ], [ %8, %7 ]
  %.151 = phi ptr [ %33, %.critedge ], [ %.048, %7 ]
  %.03650 = phi ptr [ %32, %.critedge ], [ %4, %7 ]
  %23 = load ptr, ptr %6, align 8
  %24 = zext i8 %22 to i64
  %25 = getelementptr inbounds nuw i16, ptr %23, i64 %24
  %26 = load i16, ptr %25, align 2
  %27 = and i16 %26, 8192
  %.not42 = icmp ne i16 %27, 0
  %.not43 = icmp eq i8 %22, 10
  %or.cond = or i1 %.not43, %.not42
  br i1 %or.cond, label %.critedge2, label %.critedge

.critedge:                                        ; preds = %.lr.ph52
  %28 = tail call i32 @pg_mblen(ptr noundef nonnull %.151) #14
  %29 = tail call i32 @pg_mblen(ptr noundef nonnull %.151) #14
  %30 = sext i32 %29 to i64
  call void @llvm.memcpy.p0.p0.i64(ptr align 1 %.03650, ptr nonnull align 1 %.151, i64 %30, i1 false)
  %31 = sext i32 %28 to i64
  %32 = getelementptr inbounds i8, ptr %.03650, i64 %31
  %33 = getelementptr inbounds i8, ptr %.151, i64 %31
  %34 = load i8, ptr %33, align 1
  %.not41 = icmp eq i8 %34, 0
  br i1 %.not41, label %.critedge2, label %.lr.ph52, !llvm.loop !22

.critedge2:                                       ; preds = %.critedge, %.lr.ph52
  %.036.lcssa.ph = phi ptr [ %32, %.critedge ], [ %.03650, %.lr.ph52 ]
  store i8 0, ptr %.036.lcssa.ph, align 1
  %35 = getelementptr inbounds nuw i8, ptr %0, i64 88
  %36 = load i32, ptr %35, align 8
  %37 = getelementptr inbounds nuw i8, ptr %0, i64 92
  %38 = load i32, ptr %37, align 4
  %.not44 = icmp slt i32 %36, %38
  br i1 %.not44, label %.critedge2._crit_edge, label %39

.critedge2._crit_edge:                            ; preds = %.critedge2
  %.phi.trans.insert = getelementptr inbounds nuw i8, ptr %0, i64 80
  %.pre = load ptr, ptr %.phi.trans.insert, align 8
  br label %52

39:                                               ; preds = %.critedge2
  %.not45 = icmp eq i32 %38, 0
  br i1 %.not45, label %47, label %40

40:                                               ; preds = %39
  %41 = shl i32 %38, 1
  store i32 %41, ptr %37, align 4
  %42 = getelementptr inbounds nuw i8, ptr %0, i64 80
  %43 = load ptr, ptr %42, align 8
  %44 = sext i32 %41 to i64
  %45 = shl nsw i64 %44, 4
  %46 = tail call ptr @repalloc(ptr noundef %43, i64 noundef %45) #14
  store ptr %46, ptr %42, align 8
  br label %52

47:                                               ; preds = %39
  store i32 10, ptr %37, align 4
  %48 = getelementptr inbounds nuw i8, ptr %0, i64 96
  %49 = load ptr, ptr %48, align 8
  %50 = tail call ptr @MemoryContextAlloc(ptr noundef %49, i64 noundef 160) #14
  %51 = getelementptr inbounds nuw i8, ptr %0, i64 80
  store ptr %50, ptr %51, align 8
  br label %52

52:                                               ; preds = %.critedge2._crit_edge, %40, %47
  %53 = phi ptr [ %.pre, %.critedge2._crit_edge ], [ %46, %40 ], [ %50, %47 ]
  %54 = load i32, ptr %35, align 8
  %55 = sext i32 %54 to i64
  %56 = getelementptr inbounds %struct.CompoundAffixFlag, ptr %53, i64 %55
  call fastcc void @setCompoundAffixFlagValue(ptr noundef nonnull %0, ptr noundef %56, ptr noundef %4, i32 noundef %2)
  %57 = getelementptr inbounds nuw i8, ptr %0, i64 72
  store i8 1, ptr %57, align 8
  %58 = load i32, ptr %35, align 8
  %59 = add i32 %58, 1
  store i32 %59, ptr %35, align 8
  call void @llvm.lifetime.end.p0(i64 8192, ptr nonnull %4) #14
  ret void
}